target datalayout = "e-m:e-p270:32:32-p271:32:32-p272:64:64-i64:64-i128:128-f80:128-n8:16:32:64-S128"
target triple = "x86_64-pc-linux-gnu"

%"struct.nblib::StrongType" = type { float }
%"class.nblib::ParticleType" = type <{ %"struct.nblib::StrongType.0", %"struct.nblib::StrongType", [4 x i8] }>
%"struct.nblib::StrongType.0" = type { %"class.std::__cxx11::basic_string" }
%"class.std::__cxx11::basic_string" = type { %"struct.std::__cxx11::basic_string<char>::_Alloc_hider", i64, %union.anon }
%"struct.std::__cxx11::basic_string<char>::_Alloc_hider" = type { ptr }
%union.anon = type { i64, [8 x i8] }

; Function Attrs: mustprogress nounwind uwtable
define linkonce_odr noundef float @_ZNK5nblib10StrongTypeIfNS_13MassParameterEE5valueEv(ptr noundef nonnull align 4 dereferenceable(4) %0) #0 comdat align 2 {
  %2 = alloca ptr, align 8
  store ptr %0, ptr %2, align 8
  %3 = load ptr, ptr %2, align 8
  %4 = getelementptr inbounds %"struct.nblib::StrongType", ptr %3, i32 0, i32 0
  %5 = load float, ptr %4, align 4
  ret float %5
}

; Function Attrs: mustprogress uwtable
define linkonce_odr void @_ZN5nblib10StrongTypeINSt7__cxx1112basic_stringIcSt11char_traitsIcESaIcEEENS_25ParticleTypeNameParameterEEC2ERKS8_(ptr noundef nonnull align 8 dereferenceable(32) %0, ptr noundef nonnull align 8 dereferenceable(32) %1) unnamed_addr #3 comdat align 2 {
  %3 = alloca ptr, align 8
  %4 = alloca ptr, align 8
  store ptr %0, ptr %3, align 8
  store ptr %1, ptr %4, align 8
  %5 = load ptr, ptr %3, align 8
  %6 = getelementptr inbounds %"struct.nblib::StrongType.0", ptr %5, i32 0, i32 0
  %7 = load ptr, ptr %4, align 8
  %8 = getelementptr inbounds %"struct.nblib::StrongType.0", ptr %7, i32 0, i32 0
  call void @_ZNSt7__cxx1112basic_stringIcSt11char_traitsIcESaIcEEC1ERKS4_(ptr noundef nonnull align 8 dereferenceable(32) %6, ptr noundef nonnull align 8 dereferenceable(32) %8)
  ret void
}

; Function Attrs: mustprogress nounwind uwtable
define linkonce_odr void @_ZN5nblib10StrongTypeINSt7__cxx1112basic_stringIcSt11char_traitsIcESaIcEEENS_25ParticleTypeNameParameterEED2Ev(ptr noundef nonnull align 8 dereferenceable(32) %0) unnamed_addr #0 comdat align 2 {
  %2 = alloca ptr, align 8
  store ptr %0, ptr %2, align 8
  %3 = load ptr, ptr %2, align 8
  %4 = getelementptr inbounds %"struct.nblib::StrongType.0", ptr %3, i32 0, i32 0
  call void @_ZNSt7__cxx1112basic_stringIcSt11char_traitsIcESaIcEED1Ev(ptr noundef nonnull align 8 dereferenceable(32) %4) #6
  ret void
}

; Function Attrs: mustprogress uwtable
define linkonce_odr noundef zeroext i1 @_ZN5nblibeqIfNS_13MassParameterEEEbRKNS_10StrongTypeIT_T0_EES7_(ptr noundef nonnull align 4 dereferenceable(4) %0, ptr noundef nonnull align 4 dereferenceable(4) %1) #3 comdat {
  %3 = alloca ptr, align 8
  %4 = alloca ptr, align 8
  store ptr %0, ptr %3, align 8
  store ptr %1, ptr %4, align 8
  %5 = load ptr, ptr %3, align 8
  %6 = call noundef float @_ZNK5nblib10StrongTypeIfNS_13MassParameterEE5valueEv(ptr noundef nonnull align 4 dereferenceable(4) %5)
  %7 = load ptr, ptr %4, align 8
  %8 = call noundef float @_ZNK5nblib10StrongTypeIfNS_13MassParameterEE5valueEv(ptr noundef nonnull align 4 dereferenceable(4) %7)
  %9 = fcmp oeq float %6, %8
  ret i1 %9
}

; Function Attrs: mustprogress nounwind uwtable
define float @_ZNK5nblib12ParticleType4massEv(ptr noundef nonnull align 8 dereferenceable(40) %0) #0 align 2 {
  %2 = alloca %"struct.nblib::StrongType", align 4
  %3 = alloca ptr, align 8
  store ptr %0, ptr %3, align 8
  %4 = load ptr, ptr %3, align 8
  %5 = getelementptr inbounds %"class.nblib::ParticleType", ptr %4, i32 0, i32 1
  call void @llvm.memcpy.p0.p0.i64(ptr align 4 %2, ptr align 8 %5, i64 4, i1 false)
  %6 = getelementptr inbounds %"struct.nblib::StrongType", ptr %2, i32 0, i32 0
  %7 = load float, ptr %6, align 4
  ret float %7
}

; Function Attrs: mustprogress uwtable
define void @_ZNK5nblib12ParticleType4nameB5cxx11Ev(ptr dead_on_unwind noalias writable sret(%"struct.nblib::StrongType.0") align 8 %0, ptr noundef nonnull align 8 dereferenceable(40) %1) #3 align 2 {
  %3 = alloca ptr, align 8
  %4 = alloca ptr, align 8
  store ptr %0, ptr %3, align 8
  store ptr %1, ptr %4, align 8
  %5 = load ptr, ptr %4, align 8
  %6 = getelementptr inbounds %"class.nblib::ParticleType", ptr %5, i32 0, i32 0
  call void @_ZN5nblib10StrongTypeINSt7__cxx1112basic_stringIcSt11char_traitsIcESaIcEEENS_25ParticleTypeNameParameterEEC2ERKS8_(ptr noundef nonnull align 8 dereferenceable(32) %0, ptr noundef nonnull align 8 dereferenceable(32) %6)
  ret void
}

; Function Attrs: mustprogress uwtable
define noundef zeroext i1 @_ZN5nblibeqERKNS_12ParticleTypeES2_(ptr noundef nonnull align 8 dereferenceable(40) %0, ptr noundef nonnull align 8 dereferenceable(40) %1) #3 personality ptr @__gxx_personality_v0 {
  %3 = alloca ptr, align 8
  %4 = alloca ptr, align 8
  %5 = alloca %"struct.nblib::StrongType.0", align 8
  %6 = alloca %"struct.nblib::StrongType.0", align 8
  %7 = alloca ptr, align 8
  %8 = alloca i32, align 4
  %9 = alloca %"struct.nblib::StrongType", align 4
  %10 = alloca %"struct.nblib::StrongType", align 4
  store ptr %0, ptr %3, align 8
  store ptr %1, ptr %4, align 8
  %11 = load ptr, ptr %3, align 8
  call void @_ZNK5nblib12ParticleType4nameB5cxx11Ev(ptr dead_on_unwind writable sret(%"struct.nblib::StrongType.0") align 8 %5, ptr noundef nonnull align 8 dereferenceable(40) %11)
  %12 = load ptr, ptr %4, align 8
  invoke void @_ZNK5nblib12ParticleType4nameB5cxx11Ev(ptr dead_on_unwind writable sret(%"struct.nblib::StrongType.0") align 8 %6, ptr noundef nonnull align 8 dereferenceable(40) %12)
          to label %13 unwind label %27

13:                                               ; preds = %2
  %14 = invoke noundef zeroext i1 @_ZN5nblibeqINSt7__cxx1112basic_stringIcSt11char_traitsIcESaIcEEENS_25ParticleTypeNameParameterEEEbRKNS_10StrongTypeIT_T0_EESD_(ptr noundef nonnull align 8 dereferenceable(32) %5, ptr noundef nonnull align 8 dereferenceable(32) %6)
          to label %15 unwind label %31

15:                                               ; preds = %13
  br i1 %14, label %16, label %25

16:                                               ; preds = %15
  %17 = load ptr, ptr %3, align 8
  %18 = call float @_ZNK5nblib12ParticleType4massEv(ptr noundef nonnull align 8 dereferenceable(40) %17)
  %19 = getelementptr inbounds %"struct.nblib::StrongType", ptr %9, i32 0, i32 0
  store float %18, ptr %19, align 4
  %20 = load ptr, ptr %4, align 8
  %21 = call float @_ZNK5nblib12ParticleType4massEv(ptr noundef nonnull align 8 dereferenceable(40) %20)
  %22 = getelementptr inbounds %"struct.nblib::StrongType", ptr %10, i32 0, i32 0
  store float %21, ptr %22, align 4
  %23 = invoke noundef zeroext i1 @_ZN5nblibeqIfNS_13MassParameterEEEbRKNS_10StrongTypeIT_T0_EES7_(ptr noundef nonnull align 4 dereferenceable(4) %9, ptr noundef nonnull align 4 dereferenceable(4) %10)
          to label %24 unwind label %31

24:                                               ; preds = %16
  br label %25

25:                                               ; preds = %24, %15
  %26 = phi i1 [ false, %15 ], [ %23, %24 ]
  call void @_ZN5nblib10StrongTypeINSt7__cxx1112basic_stringIcSt11char_traitsIcESaIcEEENS_25ParticleTypeNameParameterEED2Ev(ptr noundef nonnull align 8 dereferenceable(32) %6) #6
  call void @_ZN5nblib10StrongTypeINSt7__cxx1112basic_stringIcSt11char_traitsIcESaIcEEENS_25ParticleTypeNameParameterEED2Ev(ptr noundef nonnull align 8 dereferenceable(32) %5) #6
  ret i1 %26

27:                                               ; preds = %2
  %28 = landingpad { ptr, i32 }
          cleanup
  %29 = extractvalue { ptr, i32 } %28, 0
  store ptr %29, ptr %7, align 8
  %30 = extractvalue { ptr, i32 } %28, 1
  store i32 %30, ptr %8, align 4
  br label %35

31:                                               ; preds = %16, %13
  %32 = landingpad { ptr, i32 }
          cleanup
  %33 = extractvalue { ptr, i32 } %32, 0
  store ptr %33, ptr %7, align 8
  %34 = extractvalue { ptr, i32 } %32, 1
  store i32 %34, ptr %8, align 4
  call void @_ZN5nblib10StrongTypeINSt7__cxx1112basic_stringIcSt11char_traitsIcESaIcEEENS_25ParticleTypeNameParameterEED2Ev(ptr noundef nonnull align 8 dereferenceable(32) %6) #6
  br label %35

35:                                               ; preds = %31, %27
  call void @_ZN5nblib10StrongTypeINSt7__cxx1112basic_stringIcSt11char_traitsIcESaIcEEENS_25ParticleTypeNameParameterEED2Ev(ptr noundef nonnull align 8 dereferenceable(32) %5) #6
  br label %36

36:                                               ; preds = %35
  %37 = load ptr, ptr %7, align 8
  %38 = load i32, ptr %8, align 4
  %39 = insertvalue { ptr, i32 } poison, ptr %37, 0
  %40 = insertvalue { ptr, i32 } %39, i32 %38, 1
  resume { ptr, i32 } %40
}