; Function Attrs: mustprogress uwtable
define noundef zeroext i1 @_ZN5nblibeqERKNS_12ParticleTypeES2_(ptr noundef nonnull align 8 dereferenceable(40) %0, ptr noundef nonnull align 8 dereferenceable(40) %1) local_unnamed_addr #2 personality ptr @__gxx_personality_v0 {
  %3 = alloca %"struct.nblib::StrongType.0", align 8
  %4 = alloca %"struct.nblib::StrongType.0", align 8
  call void @_ZNSt7__cxx1112basic_stringIcSt11char_traitsIcESaIcEEC1ERKS4_(ptr noundef nonnull align 8 dereferenceable(32) %3, ptr noundef nonnull align 8 dereferenceable(32) %0)
  invoke void @_ZNSt7__cxx1112basic_stringIcSt11char_traitsIcESaIcEEC1ERKS4_(ptr noundef nonnull align 8 dereferenceable(32) %4, ptr noundef nonnull align 8 dereferenceable(32) %1)
          to label %_ZNK5nblib12ParticleType4nameB5cxx11Ev.exit unwind label %11

_ZNK5nblib12ParticleType4nameB5cxx11Ev.exit:      ; preds = %2
  %5 = invoke noundef zeroext i1 @_ZN5nblibeqINSt7__cxx1112basic_stringIcSt11char_traitsIcESaIcEEENS_25ParticleTypeNameParameterEEEbRKNS_10StrongTypeIT_T0_EESD_(ptr noundef nonnull align 8 dereferenceable(32) %3, ptr noundef nonnull align 8 dereferenceable(32) %4)
          to label %6 unwind label %13

6:                                                ; preds = %_ZNK5nblib12ParticleType4nameB5cxx11Ev.exit
  %7 = getelementptr inbounds i8, ptr %0, i64 32
  %.sroa.0.0.copyload.i = load float, ptr %7, align 8
  %8 = getelementptr inbounds i8, ptr %1, i64 32
  %.sroa.0.0.copyload.i7 = load float, ptr %8, align 8
  %9 = fcmp oeq float %.sroa.0.0.copyload.i, %.sroa.0.0.copyload.i7
  %10 = select i1 %5, i1 %9, i1 false
  call void @_ZNSt7__cxx1112basic_stringIcSt11char_traitsIcESaIcEED1Ev(ptr noundef nonnull align 8 dereferenceable(32) %4) #6
  call void @_ZNSt7__cxx1112basic_stringIcSt11char_traitsIcESaIcEED1Ev(ptr noundef nonnull align 8 dereferenceable(32) %3) #6
  ret i1 %10

11:                                               ; preds = %2
  %12 = landingpad { ptr, i32 }
          cleanup
  br label %15

13:                                               ; preds = %_ZNK5nblib12ParticleType4nameB5cxx11Ev.exit
  %14 = landingpad { ptr, i32 }
          cleanup
  call void @_ZNSt7__cxx1112basic_stringIcSt11char_traitsIcESaIcEED1Ev(ptr noundef nonnull align 8 dereferenceable(32) %4) #6
  br label %15

15:                                               ; preds = %13, %11
  %.pn = phi { ptr, i32 } [ %14, %13 ], [ %12, %11 ]
  call void @_ZNSt7__cxx1112basic_stringIcSt11char_traitsIcESaIcEED1Ev(ptr noundef nonnull align 8 dereferenceable(32) %3) #6
  resume { ptr, i32 } %.pn
}